target datalayout = "e-m:e-p270:32:32-p271:32:32-p272:64:64-i64:64-i128:128-f80:128-n8:16:32:64-S128"
target triple = "x86_64-pc-linux-gnu"

%struct.WarpedMotionParams = type { [8 x i32], i16, i16, i16, i16, i8, i8 }
%struct.InterpFilterParams = type { ptr, i16, i8 }
%union.int_interpfilters = type { i32 }
%struct.INTERINTER_COMPOUND_DATA = type { ptr, i8, i8, i8, i8 }
%struct.InterPredParams = type { i32, i32, %struct.WarpedMotionParams, %struct.ConvolveParams, [2 x ptr], i32, i32, i32, i32, %struct.buf_2d, i32, i32, ptr, i32, i32, %struct.INTERINTER_COMPOUND_DATA, i8, i32 }
%struct.ConvolveParams = type { i32, ptr, i32, i32, i32, i32, i32, i32, i32, i32 }
%struct.buf_2d = type { ptr, ptr, i32, i32, i32 }
%struct.InterpFilters = type { i16, i16 }

@av1_intrabc_filter_params = internal constant %struct.InterpFilterParams { ptr @av1_intrabc_bilinear_filter, i16 2, i8 3 }, align 8

; Function Attrs: nounwind uwtable
define internal ptr @av1_get_interp_filter_params_with_block_size(i8 noundef zeroext %0, i32 noundef %1) #0 {
  %3 = alloca ptr, align 8
  %4 = alloca i8, align 1
  %5 = alloca i32, align 4
  store i8 %0, ptr %4, align 1
  store i32 %1, ptr %5, align 4
  %6 = load i32, ptr %5, align 4
  %7 = icmp sle i32 %6, 4
  br i1 %7, label %8, label %16

8:                                                ; preds = %2
  %9 = load i8, ptr %4, align 1
  %10 = zext i8 %9 to i32
  %11 = icmp ne i32 %10, 4
  br i1 %11, label %12, label %16

12:                                               ; preds = %8
  %13 = load i8, ptr %4, align 1
  %14 = zext i8 %13 to i64
  %15 = getelementptr inbounds [4 x %struct.InterpFilterParams], ptr @av1_interp_4tap, i64 0, i64 %14
  store ptr %15, ptr %3, align 8
  br label %20

16:                                               ; preds = %8, %2
  %17 = load i8, ptr %4, align 1
  %18 = zext i8 %17 to i64
  %19 = getelementptr inbounds [5 x %struct.InterpFilterParams], ptr @av1_interp_filter_params_list, i64 0, i64 %18
  store ptr %19, ptr %3, align 8
  br label %20

20:                                               ; preds = %16, %12
  %21 = load ptr, ptr %3, align 8
  ret ptr %21
}

; Function Attrs: nounwind uwtable
define hidden void @av1_init_inter_params(ptr noundef %0, i32 noundef %1, i32 noundef %2, i32 noundef %3, i32 noundef %4, i32 noundef %5, i32 noundef %6, i32 noundef %7, i32 noundef %8, i32 noundef %9, ptr noundef %10, ptr noundef %11, i32 %12) #0 {
  %14 = alloca %union.int_interpfilters, align 4
  %15 = alloca ptr, align 8
  %16 = alloca i32, align 4
  %17 = alloca i32, align 4
  %18 = alloca i32, align 4
  %19 = alloca i32, align 4
  %20 = alloca i32, align 4
  %21 = alloca i32, align 4
  %22 = alloca i32, align 4
  %23 = alloca i32, align 4
  %24 = alloca i32, align 4
  %25 = alloca ptr, align 8
  %26 = alloca ptr, align 8
  %27 = getelementptr inbounds nuw %union.int_interpfilters, ptr %14, i32 0, i32 0
  store i32 %12, ptr %27, align 4
  store ptr %0, ptr %15, align 8
  store i32 %1, ptr %16, align 4
  store i32 %2, ptr %17, align 4
  store i32 %3, ptr %18, align 4
  store i32 %4, ptr %19, align 4
  store i32 %5, ptr %20, align 4
  store i32 %6, ptr %21, align 4
  store i32 %7, ptr %22, align 4
  store i32 %8, ptr %23, align 4
  store i32 %9, ptr %24, align 4
  store ptr %10, ptr %25, align 8
  store ptr %11, ptr %26, align 8
  %28 = load i32, ptr %16, align 4
  %29 = load ptr, ptr %15, align 8
  %30 = getelementptr inbounds nuw %struct.InterPredParams, ptr %29, i32 0, i32 5
  store i32 %28, ptr %30, align 8
  %31 = load i32, ptr %17, align 4
  %32 = load ptr, ptr %15, align 8
  %33 = getelementptr inbounds nuw %struct.InterPredParams, ptr %32, i32 0, i32 6
  store i32 %31, ptr %33, align 4
  %34 = load i32, ptr %18, align 4
  %35 = load ptr, ptr %15, align 8
  %36 = getelementptr inbounds nuw %struct.InterPredParams, ptr %35, i32 0, i32 7
  store i32 %34, ptr %36, align 8
  %37 = load i32, ptr %19, align 4
  %38 = load ptr, ptr %15, align 8
  %39 = getelementptr inbounds nuw %struct.InterPredParams, ptr %38, i32 0, i32 8
  store i32 %37, ptr %39, align 4
  %40 = load i32, ptr %20, align 4
  %41 = load ptr, ptr %15, align 8
  %42 = getelementptr inbounds nuw %struct.InterPredParams, ptr %41, i32 0, i32 10
  store i32 %40, ptr %42, align 8
  %43 = load i32, ptr %21, align 4
  %44 = load ptr, ptr %15, align 8
  %45 = getelementptr inbounds nuw %struct.InterPredParams, ptr %44, i32 0, i32 11
  store i32 %43, ptr %45, align 4
  %46 = load i32, ptr %22, align 4
  %47 = load ptr, ptr %15, align 8
  %48 = getelementptr inbounds nuw %struct.InterPredParams, ptr %47, i32 0, i32 13
  store i32 %46, ptr %48, align 8
  %49 = load i32, ptr %23, align 4
  %50 = load ptr, ptr %15, align 8
  %51 = getelementptr inbounds nuw %struct.InterPredParams, ptr %50, i32 0, i32 14
  store i32 %49, ptr %51, align 4
  %52 = load i32, ptr %24, align 4
  %53 = load ptr, ptr %15, align 8
  %54 = getelementptr inbounds nuw %struct.InterPredParams, ptr %53, i32 0, i32 17
  store i32 %52, ptr %54, align 4
  %55 = load ptr, ptr %25, align 8
  %56 = load ptr, ptr %15, align 8
  %57 = getelementptr inbounds nuw %struct.InterPredParams, ptr %56, i32 0, i32 12
  store ptr %55, ptr %57, align 8
  %58 = load ptr, ptr %15, align 8
  %59 = getelementptr inbounds nuw %struct.InterPredParams, ptr %58, i32 0, i32 9
  %60 = load ptr, ptr %26, align 8
  call void @llvm.memcpy.p0.p0.i64(ptr align 8 %59, ptr align 8 %60, i64 32, i1 false)
  %61 = load ptr, ptr %15, align 8
  %62 = getelementptr inbounds nuw %struct.InterPredParams, ptr %61, i32 0, i32 0
  store i32 0, ptr %62, align 8
  %63 = load ptr, ptr %15, align 8
  %64 = getelementptr inbounds nuw %struct.InterPredParams, ptr %63, i32 0, i32 1
  store i32 0, ptr %64, align 4
  %65 = load i32, ptr %24, align 4
  %66 = icmp ne i32 %65, 0
  br i1 %66, label %67, label %74

67:                                               ; preds = %13
  %68 = load ptr, ptr %15, align 8
  %69 = getelementptr inbounds nuw %struct.InterPredParams, ptr %68, i32 0, i32 4
  %70 = getelementptr inbounds [2 x ptr], ptr %69, i64 0, i64 0
  store ptr @av1_intrabc_filter_params, ptr %70, align 8
  %71 = load ptr, ptr %15, align 8
  %72 = getelementptr inbounds nuw %struct.InterPredParams, ptr %71, i32 0, i32 4
  %73 = getelementptr inbounds [2 x ptr], ptr %72, i64 0, i64 1
  store ptr @av1_intrabc_filter_params, ptr %73, align 8
  br label %91

74:                                               ; preds = %13
  %75 = getelementptr inbounds nuw %struct.InterpFilters, ptr %14, i32 0, i32 1
  %76 = load i16, ptr %75, align 2
  %77 = trunc i16 %76 to i8
  %78 = load i32, ptr %16, align 4
  %79 = call ptr @av1_get_interp_filter_params_with_block_size(i8 noundef zeroext %77, i32 noundef %78)
  %80 = load ptr, ptr %15, align 8
  %81 = getelementptr inbounds nuw %struct.InterPredParams, ptr %80, i32 0, i32 4
  %82 = getelementptr inbounds [2 x ptr], ptr %81, i64 0, i64 0
  store ptr %79, ptr %82, align 8
  %83 = getelementptr inbounds nuw %struct.InterpFilters, ptr %14, i32 0, i32 0
  %84 = load i16, ptr %83, align 4
  %85 = trunc i16 %84 to i8
  %86 = load i32, ptr %17, align 4
  %87 = call ptr @av1_get_interp_filter_params_with_block_size(i8 noundef zeroext %85, i32 noundef %86)
  %88 = load ptr, ptr %15, align 8
  %89 = getelementptr inbounds nuw %struct.InterPredParams, ptr %88, i32 0, i32 4
  %90 = getelementptr inbounds [2 x ptr], ptr %89, i64 0, i64 1
  store ptr %87, ptr %90, align 8
  br label %91

91:                                               ; preds = %74, %67
  ret void
}