; Function Attrs: mustprogress nofree norecurse nosync nounwind willreturn memory(argmem: readwrite) uwtable
define hidden void @av1_init_inter_params(ptr nocapture noundef writeonly %0, i32 noundef %1, i32 noundef %2, i32 noundef %3, i32 noundef %4, i32 noundef %5, i32 noundef %6, i32 noundef %7, i32 noundef %8, i32 noundef %9, ptr noundef %10, ptr nocapture noundef readonly %11, i32 %12) local_unnamed_addr #2 {
  %14 = getelementptr inbounds nuw i8, ptr %0, i64 120
  store i32 %1, ptr %14, align 8
  %15 = getelementptr inbounds nuw i8, ptr %0, i64 124
  store i32 %2, ptr %15, align 4
  %16 = getelementptr inbounds nuw i8, ptr %0, i64 128
  store i32 %3, ptr %16, align 8
  %17 = getelementptr inbounds nuw i8, ptr %0, i64 132
  store i32 %4, ptr %17, align 4
  %18 = getelementptr inbounds nuw i8, ptr %0, i64 168
  store i32 %5, ptr %18, align 8
  %19 = getelementptr inbounds nuw i8, ptr %0, i64 172
  store i32 %6, ptr %19, align 4
  %20 = getelementptr inbounds nuw i8, ptr %0, i64 184
  store i32 %7, ptr %20, align 8
  %21 = getelementptr inbounds nuw i8, ptr %0, i64 188
  store i32 %8, ptr %21, align 4
  %22 = getelementptr inbounds nuw i8, ptr %0, i64 212
  store i32 %9, ptr %22, align 4
  %23 = getelementptr inbounds nuw i8, ptr %0, i64 176
  store ptr %10, ptr %23, align 8
  %24 = getelementptr inbounds nuw i8, ptr %0, i64 136
  tail call void @llvm.memcpy.p0.p0.i64(ptr noundef nonnull align 8 dereferenceable(32) %24, ptr noundef nonnull align 8 dereferenceable(32) %11, i64 32, i1 false)
  store i32 0, ptr %0, align 8
  %25 = getelementptr inbounds nuw i8, ptr %0, i64 4
  store i32 0, ptr %25, align 4
  %.not = icmp eq i32 %9, 0
  br i1 %.not, label %26, label %39

26:                                               ; preds = %13
  %.sroa.2.0.extract.shift = lshr i32 %12, 16
  %27 = icmp slt i32 %1, 5
  %28 = and i32 %12, 16711680
  %29 = icmp ne i32 %28, 262144
  %or.cond.i = and i1 %27, %29
  %.mask = and i32 %.sroa.2.0.extract.shift, 255
  %30 = zext nneg i32 %.mask to i64
  %31 = getelementptr inbounds [4 x %struct.InterpFilterParams], ptr @av1_interp_4tap, i64 0, i64 %30
  %32 = getelementptr inbounds [5 x %struct.InterpFilterParams], ptr @av1_interp_filter_params_list, i64 0, i64 %30
  %.0.i = select i1 %or.cond.i, ptr %31, ptr %32
  %33 = icmp slt i32 %2, 5
  %34 = and i32 %12, 255
  %35 = icmp ne i32 %34, 4
  %or.cond.i30 = and i1 %33, %35
  %36 = zext nneg i32 %34 to i64
  %37 = getelementptr inbounds [4 x %struct.InterpFilterParams], ptr @av1_interp_4tap, i64 0, i64 %36
  %38 = getelementptr inbounds [5 x %struct.InterpFilterParams], ptr @av1_interp_filter_params_list, i64 0, i64 %36
  %.0.i31 = select i1 %or.cond.i30, ptr %37, ptr %38
  br label %39

39:                                               ; preds = %13, %26
  %av1_intrabc_filter_params.sink33 = phi ptr [ %.0.i, %26 ], [ @av1_intrabc_filter_params, %13 ]
  %av1_intrabc_filter_params.sink = phi ptr [ %.0.i31, %26 ], [ @av1_intrabc_filter_params, %13 ]
  %40 = getelementptr inbounds nuw i8, ptr %0, i64 104
  store ptr %av1_intrabc_filter_params.sink33, ptr %40, align 8
  %41 = getelementptr inbounds i8, ptr %0, i64 112
  store ptr %av1_intrabc_filter_params.sink, ptr %41, align 8
  ret void
}